target datalayout = "e-m:e-p270:32:32-p271:32:32-p272:64:64-i64:64-i128:128-f80:128-n8:16:32:64-S128"
target triple = "x86_64-pc-linux-gnu"

%class.ast_manager = type { %class.reslimit, %class.small_object_allocator, %class.family_manager, %class.parray_manager, %class.dependency_manager, %class.parray_manager.54, %class.ptr_vector.57, i32, i8, %class.ast_table, %class.obj_map.59, %class.id_gen, %class.id_gen, ptr, ptr, ptr, ptr, ptr, i32, i8, [3 x i8], %class.u_map, ptr, i8, i8, ptr, %class.symbol, %class.obj_map.68, ptr }
%class.reslimit = type { %"struct.std::atomic", i8, i64, i64, %class.svector.43, %class.ptr_vector.45 }
%"struct.std::atomic" = type { %"struct.std::__atomic_base" }
%"struct.std::__atomic_base" = type { i32 }
%class.svector.43 = type { %class.vector.44 }
%class.vector.44 = type { ptr }
%class.ptr_vector.45 = type { %class.vector.46 }
%class.vector.46 = type { ptr }
%class.small_object_allocator = type { [32 x ptr], [32 x ptr], i64 }
%class.family_manager = type { i32, %class.symbol_table, %class.svector.20 }
%class.symbol_table = type { %class.core_hashtable.47, %class.vector.49, %class.svector.17 }
%class.core_hashtable.47 = type <{ ptr, i32, i32, i32, [4 x i8] }>
%class.vector.49 = type { ptr }
%class.svector.17 = type { %class.vector.18 }
%class.vector.18 = type { ptr }
%class.svector.20 = type { %class.vector.21 }
%class.vector.21 = type { ptr }
%class.parray_manager = type { ptr, ptr, %class.ptr_vector.50, %class.ptr_vector.50 }
%class.ptr_vector.50 = type { %class.vector.51 }
%class.vector.51 = type { ptr }
%class.dependency_manager = type { ptr, ptr, %class.ptr_vector.52 }
%class.ptr_vector.52 = type { %class.vector.53 }
%class.vector.53 = type { ptr }
%class.parray_manager.54 = type { ptr, ptr, %class.ptr_vector.55, %class.ptr_vector.55 }
%class.ptr_vector.55 = type { %class.vector.56 }
%class.vector.56 = type { ptr }
%class.ptr_vector.57 = type { %class.vector.58 }
%class.vector.58 = type { ptr }
%class.ast_table = type { %class.chashtable }
%class.chashtable = type { ptr, i32, i32, i32, i32, i32, i32, i32, ptr, ptr, ptr }
%class.obj_map.59 = type { %class.core_hashtable.60 }
%class.core_hashtable.60 = type <{ ptr, i32, i32, i32, [4 x i8] }>
%class.id_gen = type { i32, %class.svector }
%class.svector = type { %class.vector }
%class.vector = type { ptr }
%class.u_map = type { %class.map.64 }
%class.map.64 = type { %class.table2map.65 }
%class.table2map.65 = type { %class.core_hashtable.66 }
%class.core_hashtable.66 = type <{ ptr, i32, i32, i32, [4 x i8] }>
%class.symbol = type { ptr }
%class.obj_map.68 = type { %class.core_hashtable.69 }
%class.core_hashtable.69 = type <{ ptr, i32, i32, i32, [4 x i8] }>

@_ZL17g_first_interrupt = internal global i8 1, align 1
@_ZL5g_opt = internal global ptr null, align 8

; Function Attrs: mustprogress nounwind uwtable
define linkonce_odr hidden noundef nonnull align 8 dereferenceable(40) ptr @_ZN11ast_manager5limitEv(ptr noundef nonnull align 8 dereferenceable(976) %0) #4 comdat align 2 {
  %2 = alloca ptr, align 8
  store ptr %0, ptr %2, align 8, !tbaa !95
  %3 = load ptr, ptr %2, align 8
  %4 = getelementptr inbounds nuw %class.ast_manager, ptr %3, i32 0, i32 0
  ret ptr %4
}

; Function Attrs: mustprogress uwtable
define internal void @_ZL9on_ctrl_ci(i32 noundef %0) #7 {
  %2 = alloca i32, align 4
  store i32 %0, ptr %2, align 4, !tbaa !9
  %3 = load ptr, ptr @_ZL5g_opt, align 8, !tbaa !41
  %4 = icmp ne ptr %3, null
  br i1 %4, label %5, label %15

5:                                                ; preds = %1
  %6 = load i8, ptr @_ZL17g_first_interrupt, align 1, !tbaa !11, !range !13, !noundef !14
  %7 = trunc i8 %6 to i1
  br i1 %7, label %8, label %15

8:                                                ; preds = %5
  %9 = load ptr, ptr @_ZL5g_opt, align 8, !tbaa !41
  %10 = load ptr, ptr %9, align 8, !tbaa !39
  %11 = getelementptr inbounds ptr, ptr %10, i64 9
  %12 = load ptr, ptr %11, align 8
  %13 = call noundef nonnull align 8 dereferenceable(976) ptr %12(ptr noundef nonnull align 8 dereferenceable(808) %9)
  %14 = call noundef nonnull align 8 dereferenceable(40) ptr @_ZN11ast_manager5limitEv(ptr noundef nonnull align 8 dereferenceable(976) %13)
  call void @_ZN8reslimit6cancelEv(ptr noundef nonnull align 8 dereferenceable(40) %14)
  store i8 0, ptr @_ZL17g_first_interrupt, align 1, !tbaa !11
  br label %18

15:                                               ; preds = %5, %1
  %16 = call ptr @signal(i32 noundef 2, ptr noundef null) #3
  call void @_ZL18display_statisticsv()
  %17 = call i32 @raise(i32 noundef 2) #3
  br label %18

18:                                               ; preds = %15, %8
  ret void
}