; Function Attrs: mustprogress uwtable
define internal void @_ZL9on_ctrl_ci(i32 %0) #6 {
  %2 = load ptr, ptr @_ZL5g_opt, align 8, !tbaa !25
  %.not = icmp eq ptr %2, null
  br i1 %.not, label %9, label %3

3:                                                ; preds = %1
  %.b = load i1, ptr @_ZL17g_first_interrupt, align 1
  br i1 %.b, label %9, label %4

4:                                                ; preds = %3
  %5 = load ptr, ptr %2, align 8, !tbaa !12
  %6 = getelementptr inbounds nuw i8, ptr %5, i64 72
  %7 = load ptr, ptr %6, align 8
  %8 = tail call noundef nonnull align 8 dereferenceable(976) ptr %7(ptr noundef nonnull align 8 dereferenceable(808) %2)
  tail call void @_ZN8reslimit6cancelEv(ptr noundef nonnull align 8 dereferenceable(40) %8)
  store i1 true, ptr @_ZL17g_first_interrupt, align 1
  br label %12

9:                                                ; preds = %3, %1
  %10 = tail call ptr @signal(i32 noundef 2, ptr noundef null) #23
  tail call fastcc void @_ZL18display_statisticsv()
  %11 = tail call i32 @raise(i32 noundef 2) #23
  br label %12

12:                                               ; preds = %9, %4
  ret void
}